#include <math.h>
#include <stdio.h>
#include <stdlib.h>
#include <string.h>
#include <iostream>
using namespace std;

//****************************************************** 
/* ? ? ?   ???
/* ? ?      ????                           
/* ? ? ? ??2010 ? 11  ?  7  ?     
/* ? ? ? ??????????????????????????????????????
/* ? ?      ?1000012752        
*******************************************************/ 
int main()                                  
{
    int a[16];
	int i,j,k;
	int count;

    end3:;
	for(i=0 ;  ; i++)									//????a[i]
	{
        count = 0;
        cin >> a[i];
		if(a[i] == -1)									//????-1?????
		{goto end1;}
		if(a[i] == 0)									//????0???????????
		{
			for(j=0 ; j<i ; j++)						//??????j?k???????????
			{
				for(k=0 ; k<i ; k++)
                {
					 if(a[j] == 2*a[k])					//???2?????????????+1
					 {
						 count = count+1;
						 break;
					 }
				}
			}
			cout << count << endl;
			goto end3;									//??????a[i]
		}

	}
end1:;
                  
    return 0;
}
                          
    
    
